target datalayout = "e-m:e-p270:32:32-p271:32:32-p272:64:64-i64:64-i128:128-f80:128-n8:16:32:64-S128"
target triple = "x86_64-pc-linux-gnu"

%struct.FLAC__StreamMetadata = type { i32, i32, i32, %union.anon }
%union.anon = type { %struct.FLAC__StreamMetadata_CueSheet }
%struct.FLAC__StreamMetadata_CueSheet = type { [129 x i8], i64, i32, i32, ptr }
%struct.FLAC__StreamMetadata_SeekTable = type { i32, ptr }

; Function Attrs: nounwind sspstrong uwtable
define i32 @FLAC__metadata_object_seektable_template_append_placeholders(ptr noundef %0, i32 noundef %1) #0 {
  %3 = alloca i32, align 4
  %4 = alloca ptr, align 8
  %5 = alloca i32, align 4
  store ptr %0, ptr %4, align 8, !tbaa !7
  store i32 %1, ptr %5, align 4, !tbaa !3
  %6 = load i32, ptr %5, align 4, !tbaa !3
  %7 = icmp ugt i32 %6, 0
  br i1 %7, label %8, label %17

8:                                                ; preds = %2
  %9 = load ptr, ptr %4, align 8, !tbaa !7
  %10 = load ptr, ptr %4, align 8, !tbaa !7
  %11 = getelementptr inbounds nuw %struct.FLAC__StreamMetadata, ptr %10, i32 0, i32 3
  %12 = getelementptr inbounds nuw %struct.FLAC__StreamMetadata_SeekTable, ptr %11, i32 0, i32 0
  %13 = load i32, ptr %12, align 8, !tbaa !16
  %14 = load i32, ptr %5, align 4, !tbaa !3
  %15 = add i32 %13, %14
  %16 = call i32 @FLAC__metadata_object_seektable_resize_points(ptr noundef %9, i32 noundef %15)
  store i32 %16, ptr %3, align 4
  br label %18

17:                                               ; preds = %2
  store i32 1, ptr %3, align 4
  br label %18

18:                                               ; preds = %17, %8
  %19 = load i32, ptr %3, align 4
  ret i32 %19
}