; Function Attrs: nounwind sspstrong uwtable
define range(i32 0, 2) i32 @FLAC__metadata_object_seektable_template_append_placeholders(ptr noundef captures(none) %0, i32 noundef %1) local_unnamed_addr #5 {
  %.not = icmp eq i32 %1, 0
  br i1 %.not, label %8, label %3

3:                                                ; preds = %2
  %4 = getelementptr inbounds nuw i8, ptr %0, i64 16
  %5 = load i32, ptr %4, align 8, !tbaa !13
  %6 = add i32 %5, %1
  %7 = tail call i32 @FLAC__metadata_object_seektable_resize_points(ptr noundef %0, i32 noundef %6)
  br label %8

8:                                                ; preds = %2, %3
  %.0 = phi i32 [ %7, %3 ], [ 1, %2 ]
  ret i32 %.0
}